target datalayout = "e-m:e-p270:32:32-p271:32:32-p272:64:64-i64:64-i128:128-f80:128-n8:16:32:64-S128"
target triple = "x86_64-pc-linux-gnu"

%struct.expert_field = type { i32, i32 }
%struct._packet_info = type { ptr, ptr, i32, i32, %struct.nstime_t, %struct.nstime_t, %struct.nstime_t, i8, ptr, ptr, ptr, ptr, %struct._address, %struct._address, %struct._address, %struct._address, %struct._address, %struct._address, i32, ptr, i8, [3 x i8], %struct.anon, i32, i32, i32, i32, ptr, i8, ptr, ptr, i16, i16, i32, i32, i16, i32, i32, ptr, ptr, ptr, i8, i8, i16, i16, i16, i32, i16, i16, ptr, ptr, ptr, ptr, ptr, i32, i32 }
%struct.nstime_t = type { i64, i32 }
%struct._address = type { i32, i32, ptr, ptr }
%struct.anon = type { i8, [3 x i8] }
%struct.cip_connection_triad = type { i16, i16, i32 }
%struct._proto_node = type { ptr, ptr, ptr, ptr, ptr, ptr, ptr }
%struct.field_info = type { ptr, i32, i32, i32, i32, i32, i32, ptr, ptr, ptr, i32, i32 }

@hf_cipsafety_data = internal global i32 0, align 4
@hf_cipsafety_crc_s1 = internal global i32 0, align 4
@hf_cipsafety_crc_s1_status = internal global i32 0, align 4
@hf_cipsafety_crc_s2 = internal global i32 0, align 4
@hf_cipsafety_crc_s2_status = internal global i32 0, align 4
@hf_cip_safety_message_encoding = internal global i32 0, align 4
@ei_cipsafety_crc_s1 = internal global %struct.expert_field zeroinitializer, align 4
@ei_cipsafety_crc_s2 = internal global %struct.expert_field zeroinitializer, align 4

; Function Attrs: alwaysinline nounwind
define internal ptr @memcpy.inline(ptr noalias %0, ptr noalias %1, i64 %2) #8 {
  %4 = alloca ptr, align 8
  %5 = alloca ptr, align 8
  %6 = alloca i64, align 8
  store ptr %0, ptr %4, align 8
  store ptr %1, ptr %5, align 8
  store i64 %2, ptr %6, align 8
  %7 = load ptr, ptr %4, align 8
  %8 = load ptr, ptr %5, align 8
  %9 = load i64, ptr %6, align 8
  %10 = load ptr, ptr %4, align 8
  %11 = call i64 @llvm.objectsize.i64.p0(ptr %10, i1 false, i1 true, i1 true)
  %12 = call ptr @__memcpy_chk(ptr noundef %7, ptr noundef %8, i64 noundef %9, i64 noundef %11) #11
  ret ptr %12
}

; Function Attrs: null_pointer_is_valid sspstrong uwtable
define internal zeroext i8 @compute_crc_s2_data(i8 noundef zeroext %0, i8 noundef zeroext %1, ptr noundef %2, i32 noundef %3) #0 {
  %5 = alloca i8, align 1
  %6 = alloca i8, align 1
  %7 = alloca ptr, align 8
  %8 = alloca i32, align 4
  %9 = alloca i32, align 4
  %10 = alloca i8, align 1
  store i8 %0, ptr %5, align 1
  store i8 %1, ptr %6, align 1
  store ptr %2, ptr %7, align 8
  store i32 %3, ptr %8, align 4
  call void @llvm.lifetime.start.p0(i64 4, ptr %9) #11
  call void @llvm.lifetime.start.p0(i64 1, ptr %10) #11
  %11 = load i8, ptr %5, align 1
  %12 = call zeroext i8 @crc8_0x3B(ptr noundef %6, i32 noundef 1, i8 noundef zeroext %11)
  store i8 %12, ptr %10, align 1
  store i32 0, ptr %9, align 4
  br label %13

13:                                               ; preds = %26, %4
  %14 = load i32, ptr %9, align 4
  %15 = load i32, ptr %8, align 4
  %16 = icmp slt i32 %14, %15
  br i1 %16, label %17, label %29

17:                                               ; preds = %13
  %18 = load ptr, ptr %7, align 8
  %19 = load i32, ptr %9, align 4
  %20 = sext i32 %19 to i64
  %21 = getelementptr i8, ptr %18, i64 %20
  %22 = load i8, ptr %21, align 1
  %23 = zext i8 %22 to i32
  %24 = xor i32 %23, 255
  %25 = trunc i32 %24 to i8
  store i8 %25, ptr %21, align 1
  br label %26

26:                                               ; preds = %17
  %27 = load i32, ptr %9, align 4
  %28 = add i32 %27, 1
  store i32 %28, ptr %9, align 4
  br label %13, !llvm.loop !15

29:                                               ; preds = %13
  %30 = load ptr, ptr %7, align 8
  %31 = load i32, ptr %8, align 4
  %32 = load i8, ptr %10, align 1
  %33 = call zeroext i8 @crc8_0x3B(ptr noundef %30, i32 noundef %31, i8 noundef zeroext %32)
  call void @llvm.lifetime.end.p0(i64 1, ptr %10) #11
  call void @llvm.lifetime.end.p0(i64 4, ptr %9) #11
  ret i8 %33
}

; Function Attrs: null_pointer_is_valid sspstrong uwtable
define internal zeroext i8 @compute_crc_s1_data(i8 noundef zeroext %0, i8 noundef zeroext %1, ptr noundef %2, i32 noundef %3) #0 {
  %5 = alloca i8, align 1
  %6 = alloca i8, align 1
  %7 = alloca ptr, align 8
  %8 = alloca i32, align 4
  %9 = alloca i8, align 1
  store i8 %0, ptr %5, align 1
  store i8 %1, ptr %6, align 1
  store ptr %2, ptr %7, align 8
  store i32 %3, ptr %8, align 4
  call void @llvm.lifetime.start.p0(i64 1, ptr %9) #11
  %10 = load i8, ptr %5, align 1
  %11 = call zeroext i8 @crc8_0x37(ptr noundef %6, i32 noundef 1, i8 noundef zeroext %10)
  store i8 %11, ptr %9, align 1
  %12 = load ptr, ptr %7, align 8
  %13 = load i32, ptr %8, align 4
  %14 = load i8, ptr %9, align 1
  %15 = call zeroext i8 @crc8_0x37(ptr noundef %12, i32 noundef %13, i8 noundef zeroext %14)
  call void @llvm.lifetime.end.p0(i64 1, ptr %9) #11
  ret i8 %15
}

; Function Attrs: null_pointer_is_valid sspstrong uwtable
define internal zeroext i8 @compute_crc_s1_pid(ptr noundef %0) #0 {
  %2 = alloca ptr, align 8
  %3 = alloca [8 x i8], align 1
  store ptr %0, ptr %2, align 8
  call void @llvm.lifetime.start.p0(i64 8, ptr %3) #11
  %4 = getelementptr inbounds [8 x i8], ptr %3, i64 0, i64 0
  %5 = load ptr, ptr %2, align 8
  %6 = getelementptr inbounds nuw %struct.cip_connection_triad, ptr %5, i32 0, i32 1
  %7 = call ptr @memcpy.inline(ptr noundef %4, ptr noundef %6, i64 noundef 2) #11
  %8 = getelementptr [8 x i8], ptr %3, i64 0, i64 2
  %9 = load ptr, ptr %2, align 8
  %10 = getelementptr inbounds nuw %struct.cip_connection_triad, ptr %9, i32 0, i32 2
  %11 = call ptr @memcpy.inline(ptr noundef %8, ptr noundef %10, i64 noundef 4) #11
  %12 = getelementptr [8 x i8], ptr %3, i64 0, i64 6
  %13 = load ptr, ptr %2, align 8
  %14 = getelementptr inbounds nuw %struct.cip_connection_triad, ptr %13, i32 0, i32 0
  %15 = call ptr @memcpy.inline(ptr noundef %12, ptr noundef %14, i64 noundef 2) #11
  %16 = getelementptr inbounds [8 x i8], ptr %3, i64 0, i64 0
  %17 = call zeroext i8 @crc8_0x37(ptr noundef %16, i32 noundef 8, i8 noundef zeroext 0)
  call void @llvm.lifetime.end.p0(i64 8, ptr %3) #11
  ret i8 %17
}

; Function Attrs: inlinehint nounwind null_pointer_is_valid sspstrong uwtable
define internal void @proto_item_set_generated(ptr noundef %0) #5 {
  %2 = alloca ptr, align 8
  store ptr %0, ptr %2, align 8
  %3 = load ptr, ptr %2, align 8
  %4 = icmp ne ptr %3, null
  br i1 %4, label %5, label %24

5:                                                ; preds = %1
  br label %6

6:                                                ; preds = %5
  %7 = load ptr, ptr %2, align 8
  %8 = getelementptr inbounds nuw %struct._proto_node, ptr %7, i32 0, i32 5
  %9 = load ptr, ptr %8, align 8
  %10 = icmp ne ptr %9, null
  br i1 %10, label %11, label %22

11:                                               ; preds = %6
  %12 = load ptr, ptr %2, align 8
  %13 = getelementptr inbounds nuw %struct._proto_node, ptr %12, i32 0, i32 5
  %14 = load ptr, ptr %13, align 8
  %15 = getelementptr inbounds nuw %struct.field_info, ptr %14, i32 0, i32 6
  %16 = load i32, ptr %15, align 4
  %17 = or i32 %16, 2
  %18 = load ptr, ptr %2, align 8
  %19 = getelementptr inbounds nuw %struct._proto_node, ptr %18, i32 0, i32 5
  %20 = load ptr, ptr %19, align 8
  %21 = getelementptr inbounds nuw %struct.field_info, ptr %20, i32 0, i32 6
  store i32 %17, ptr %21, align 4
  br label %22

22:                                               ; preds = %11, %6
  br label %23

23:                                               ; preds = %22
  br label %24

24:                                               ; preds = %23, %1
  ret void
}

; Function Attrs: null_pointer_is_valid sspstrong uwtable
define internal void @dissect_base_format_1_or_2_byte_data(ptr noundef %0, ptr noundef %1, ptr noundef %2, i32 noundef %3, i1 noundef zeroext %4, ptr noundef %5) #0 {
  %7 = alloca ptr, align 8
  %8 = alloca ptr, align 8
  %9 = alloca ptr, align 8
  %10 = alloca i32, align 4
  %11 = alloca i8, align 1
  %12 = alloca ptr, align 8
  %13 = alloca ptr, align 8
  %14 = alloca i8, align 1
  %15 = alloca i8, align 1
  %16 = alloca i8, align 1
  store ptr %0, ptr %7, align 8
  store ptr %1, ptr %8, align 8
  store ptr %2, ptr %9, align 8
  store i32 %3, ptr %10, align 4
  %17 = zext i1 %4 to i8
  store i8 %17, ptr %11, align 1
  store ptr %5, ptr %12, align 8
  call void @llvm.lifetime.start.p0(i64 8, ptr %13) #11
  %18 = load ptr, ptr %8, align 8
  %19 = load i32, ptr @hf_cip_safety_message_encoding, align 4
  %20 = load ptr, ptr %9, align 8
  %21 = call ptr @proto_tree_add_uint(ptr noundef %18, i32 noundef %19, ptr noundef %20, i32 noundef 0, i32 noundef 0, i32 noundef 0)
  store ptr %21, ptr %13, align 8
  %22 = load ptr, ptr %13, align 8
  call void @proto_item_set_generated(ptr noundef %22)
  %23 = load ptr, ptr %8, align 8
  %24 = load i32, ptr @hf_cipsafety_data, align 4
  %25 = load ptr, ptr %9, align 8
  %26 = load i32, ptr %10, align 4
  %27 = call ptr @proto_tree_add_item(ptr noundef %23, i32 noundef %24, ptr noundef %25, i32 noundef 0, i32 noundef %26, i32 noundef 0)
  %28 = load ptr, ptr %8, align 8
  %29 = load ptr, ptr %9, align 8
  %30 = load i32, ptr %10, align 4
  %31 = load ptr, ptr %7, align 8
  call void @dissect_mode_byte(ptr noundef %28, ptr noundef %29, i32 noundef %30, ptr noundef %31)
  call void @llvm.lifetime.start.p0(i64 1, ptr %14) #11
  %32 = load ptr, ptr %9, align 8
  %33 = load i32, ptr %10, align 4
  %34 = call zeroext i8 @tvb_get_uint8(ptr noundef %32, i32 noundef %33)
  store i8 %34, ptr %14, align 1
  %35 = load i8, ptr %11, align 1, !range !13, !noundef !14
  %36 = trunc i8 %35 to i1
  br i1 %36, label %37, label %85

37:                                               ; preds = %6
  call void @llvm.lifetime.start.p0(i64 1, ptr %15) #11
  %38 = load ptr, ptr %12, align 8
  %39 = call zeroext i8 @compute_crc_s1_pid(ptr noundef %38)
  %40 = load i8, ptr %14, align 1
  %41 = zext i8 %40 to i32
  %42 = and i32 %41, 224
  %43 = trunc i32 %42 to i8
  %44 = load ptr, ptr %9, align 8
  %45 = load i32, ptr %10, align 4
  %46 = call ptr @tvb_get_ptr(ptr noundef %44, i32 noundef 0, i32 noundef %45)
  %47 = load i32, ptr %10, align 4
  %48 = call zeroext i8 @compute_crc_s1_data(i8 noundef zeroext %39, i8 noundef zeroext %43, ptr noundef %46, i32 noundef %47)
  store i8 %48, ptr %15, align 1
  %49 = load ptr, ptr %8, align 8
  %50 = load ptr, ptr %9, align 8
  %51 = load i32, ptr %10, align 4
  %52 = add i32 %51, 1
  %53 = load i32, ptr @hf_cipsafety_crc_s1, align 4
  %54 = load i32, ptr @hf_cipsafety_crc_s1_status, align 4
  %55 = load ptr, ptr %7, align 8
  %56 = load i8, ptr %15, align 1
  %57 = zext i8 %56 to i32
  %58 = call ptr @proto_tree_add_checksum(ptr noundef %49, ptr noundef %50, i32 noundef %52, i32 noundef %53, i32 noundef %54, ptr noundef @ei_cipsafety_crc_s1, ptr noundef %55, i32 noundef %57, i32 noundef -2147483648, i32 noundef 1)
  call void @llvm.lifetime.start.p0(i64 1, ptr %16) #11
  %59 = load ptr, ptr %12, align 8
  %60 = call zeroext i8 @compute_crc_s1_pid(ptr noundef %59)
  %61 = load i8, ptr %14, align 1
  %62 = zext i8 %61 to i32
  %63 = xor i32 %62, 255
  %64 = and i32 %63, 224
  %65 = trunc i32 %64 to i8
  %66 = load ptr, ptr %7, align 8
  %67 = getelementptr inbounds nuw %struct._packet_info, ptr %66, i32 0, i32 51
  %68 = load ptr, ptr %67, align 8
  %69 = load ptr, ptr %9, align 8
  %70 = load i32, ptr %10, align 4
  %71 = sext i32 %70 to i64
  %72 = call ptr @tvb_memdup(ptr noundef %68, ptr noundef %69, i32 noundef 0, i64 noundef %71)
  %73 = load i32, ptr %10, align 4
  %74 = call zeroext i8 @compute_crc_s2_data(i8 noundef zeroext %60, i8 noundef zeroext %65, ptr noundef %72, i32 noundef %73)
  store i8 %74, ptr %16, align 1
  %75 = load ptr, ptr %8, align 8
  %76 = load ptr, ptr %9, align 8
  %77 = load i32, ptr %10, align 4
  %78 = add i32 %77, 2
  %79 = load i32, ptr @hf_cipsafety_crc_s2, align 4
  %80 = load i32, ptr @hf_cipsafety_crc_s2_status, align 4
  %81 = load ptr, ptr %7, align 8
  %82 = load i8, ptr %16, align 1
  %83 = zext i8 %82 to i32
  %84 = call ptr @proto_tree_add_checksum(ptr noundef %75, ptr noundef %76, i32 noundef %78, i32 noundef %79, i32 noundef %80, ptr noundef @ei_cipsafety_crc_s2, ptr noundef %81, i32 noundef %83, i32 noundef -2147483648, i32 noundef 1)
  call void @llvm.lifetime.end.p0(i64 1, ptr %16) #11
  call void @llvm.lifetime.end.p0(i64 1, ptr %15) #11
  br label %102

85:                                               ; preds = %6
  %86 = load ptr, ptr %8, align 8
  %87 = load ptr, ptr %9, align 8
  %88 = load i32, ptr %10, align 4
  %89 = add i32 %88, 1
  %90 = load i32, ptr @hf_cipsafety_crc_s1, align 4
  %91 = load i32, ptr @hf_cipsafety_crc_s1_status, align 4
  %92 = load ptr, ptr %7, align 8
  %93 = call ptr @proto_tree_add_checksum(ptr noundef %86, ptr noundef %87, i32 noundef %89, i32 noundef %90, i32 noundef %91, ptr noundef @ei_cipsafety_crc_s1, ptr noundef %92, i32 noundef 0, i32 noundef -2147483648, i32 noundef 0)
  %94 = load ptr, ptr %8, align 8
  %95 = load ptr, ptr %9, align 8
  %96 = load i32, ptr %10, align 4
  %97 = add i32 %96, 2
  %98 = load i32, ptr @hf_cipsafety_crc_s2, align 4
  %99 = load i32, ptr @hf_cipsafety_crc_s2_status, align 4
  %100 = load ptr, ptr %7, align 8
  %101 = call ptr @proto_tree_add_checksum(ptr noundef %94, ptr noundef %95, i32 noundef %97, i32 noundef %98, i32 noundef %99, ptr noundef @ei_cipsafety_crc_s2, ptr noundef %100, i32 noundef 0, i32 noundef -2147483648, i32 noundef 0)
  br label %102

102:                                              ; preds = %85, %37
  call void @llvm.lifetime.end.p0(i64 1, ptr %14) #11
  call void @llvm.lifetime.end.p0(i64 8, ptr %13) #11
  ret void
}