; Function Attrs: null_pointer_is_valid sspstrong uwtable
define internal fastcc void @dissect_base_format_1_or_2_byte_data(ptr noundef %0, ptr noundef %1, ptr noundef %2, i32 noundef range(i32 -6, 2147483642) %3, i1 noundef zeroext %4, ptr noundef readonly captures(none) %5) unnamed_addr #2 {
  %7 = alloca i8, align 1
  %8 = alloca [8 x i8], align 2
  %9 = alloca i8, align 1
  %10 = alloca [8 x i8], align 2
  %11 = load i32, ptr @hf_cip_safety_message_encoding, align 4
  %12 = tail call ptr @proto_tree_add_uint(ptr noundef %1, i32 noundef %11, ptr noundef %2, i32 noundef 0, i32 noundef 0, i32 noundef 0)
  %.not.i = icmp eq ptr %12, null
  br i1 %.not.i, label %proto_item_set_generated.exit, label %13

13:                                               ; preds = %6
  %14 = getelementptr inbounds nuw i8, ptr %12, i64 40
  %15 = load ptr, ptr %14, align 8
  %.not5.i = icmp eq ptr %15, null
  br i1 %.not5.i, label %proto_item_set_generated.exit, label %16

16:                                               ; preds = %13
  %17 = getelementptr inbounds nuw i8, ptr %15, i64 28
  %18 = load i32, ptr %17, align 4
  %19 = or i32 %18, 2
  store i32 %19, ptr %17, align 4
  br label %proto_item_set_generated.exit

proto_item_set_generated.exit:                    ; preds = %6, %13, %16
  %20 = load i32, ptr @hf_cipsafety_data, align 4
  %21 = tail call ptr @proto_tree_add_item(ptr noundef %1, i32 noundef %20, ptr noundef %2, i32 noundef 0, i32 noundef %3, i32 noundef 0)
  tail call fastcc void @dissect_mode_byte(ptr noundef %1, ptr noundef %2, i32 noundef %3, ptr noundef %0)
  %22 = tail call zeroext i8 @tvb_get_uint8(ptr noundef %2, i32 noundef %3)
  br i1 %4, label %23, label %63

23:                                               ; preds = %proto_item_set_generated.exit
  call void @llvm.lifetime.start.p0(i64 8, ptr nonnull %10) #7
  %24 = getelementptr inbounds nuw i8, ptr %5, i64 2
  %25 = load i16, ptr %24, align 1
  store i16 %25, ptr %10, align 2
  %26 = getelementptr inbounds nuw i8, ptr %10, i64 2
  %27 = getelementptr inbounds nuw i8, ptr %5, i64 4
  %28 = load i32, ptr %27, align 1
  store i32 %28, ptr %26, align 2
  %29 = getelementptr inbounds nuw i8, ptr %10, i64 6
  %30 = load i16, ptr %5, align 1
  store i16 %30, ptr %29, align 2
  %31 = call zeroext i8 @crc8_0x37(ptr noundef nonnull %10, i32 noundef 8, i8 noundef zeroext 0)
  call void @llvm.lifetime.end.p0(i64 8, ptr nonnull %10) #7
  %32 = and i8 %22, -32
  %33 = call ptr @tvb_get_ptr(ptr noundef %2, i32 noundef 0, i32 noundef %3)
  call void @llvm.lifetime.start.p0(i64 1, ptr nonnull %9)
  store i8 %32, ptr %9, align 1
  %34 = call zeroext i8 @crc8_0x37(ptr noundef nonnull %9, i32 noundef 1, i8 noundef zeroext %31)
  %35 = call zeroext i8 @crc8_0x37(ptr noundef %33, i32 noundef range(i32 -6, 2147483642) %3, i8 noundef zeroext %34)
  call void @llvm.lifetime.end.p0(i64 1, ptr nonnull %9)
  %36 = add nsw i32 %3, 1
  %37 = load i32, ptr @hf_cipsafety_crc_s1, align 4
  %38 = load i32, ptr @hf_cipsafety_crc_s1_status, align 4
  %39 = zext i8 %35 to i32
  %40 = call ptr @proto_tree_add_checksum(ptr noundef %1, ptr noundef %2, i32 noundef %36, i32 noundef %37, i32 noundef %38, ptr noundef nonnull @ei_cipsafety_crc_s1, ptr noundef %0, i32 noundef %39, i32 noundef -2147483648, i32 noundef 1)
  call void @llvm.lifetime.start.p0(i64 8, ptr nonnull %8) #7
  %41 = load i16, ptr %24, align 1
  store i16 %41, ptr %8, align 2
  %42 = getelementptr inbounds nuw i8, ptr %8, i64 2
  %43 = load i32, ptr %27, align 1
  store i32 %43, ptr %42, align 2
  %44 = getelementptr inbounds nuw i8, ptr %8, i64 6
  %45 = load i16, ptr %5, align 1
  store i16 %45, ptr %44, align 2
  %46 = call zeroext i8 @crc8_0x37(ptr noundef nonnull %8, i32 noundef 8, i8 noundef zeroext 0)
  call void @llvm.lifetime.end.p0(i64 8, ptr nonnull %8) #7
  %47 = xor i8 %32, -32
  %48 = getelementptr inbounds nuw i8, ptr %0, i64 408
  %49 = load ptr, ptr %48, align 8
  %50 = sext i32 %3 to i64
  %51 = call ptr @tvb_memdup(ptr noundef %49, ptr noundef %2, i32 noundef 0, i64 noundef %50)
  call void @llvm.lifetime.start.p0(i64 1, ptr nonnull %7)
  store i8 %47, ptr %7, align 1
  %52 = call zeroext i8 @crc8_0x3B(ptr noundef nonnull %7, i32 noundef 1, i8 noundef zeroext %46)
  %53 = icmp sgt i32 %3, 0
  br i1 %53, label %.lr.ph.preheader.i, label %compute_crc_s2_data.exit

.lr.ph.preheader.i:                               ; preds = %23
  %wide.trip.count.i = zext nneg i32 %3 to i64
  br label %.lr.ph.i

.lr.ph.i:                                         ; preds = %.lr.ph.i, %.lr.ph.preheader.i
  %indvars.iv.i = phi i64 [ 0, %.lr.ph.preheader.i ], [ %indvars.iv.next.i, %.lr.ph.i ]
  %54 = getelementptr i8, ptr %51, i64 %indvars.iv.i
  %55 = load i8, ptr %54, align 1
  %56 = xor i8 %55, -1
  store i8 %56, ptr %54, align 1
  %indvars.iv.next.i = add nuw nsw i64 %indvars.iv.i, 1
  %exitcond.not.i = icmp eq i64 %indvars.iv.next.i, %wide.trip.count.i
  br i1 %exitcond.not.i, label %compute_crc_s2_data.exit, label %.lr.ph.i, !llvm.loop !15

compute_crc_s2_data.exit:                         ; preds = %.lr.ph.i, %23
  %57 = call zeroext i8 @crc8_0x3B(ptr noundef %51, i32 noundef range(i32 -6, 2147483642) %3, i8 noundef zeroext %52)
  call void @llvm.lifetime.end.p0(i64 1, ptr nonnull %7)
  %58 = add nsw i32 %3, 2
  %59 = load i32, ptr @hf_cipsafety_crc_s2, align 4
  %60 = load i32, ptr @hf_cipsafety_crc_s2_status, align 4
  %61 = zext i8 %57 to i32
  %62 = call ptr @proto_tree_add_checksum(ptr noundef %1, ptr noundef %2, i32 noundef %58, i32 noundef %59, i32 noundef %60, ptr noundef nonnull @ei_cipsafety_crc_s2, ptr noundef %0, i32 noundef %61, i32 noundef -2147483648, i32 noundef 1)
  br label %72

63:                                               ; preds = %proto_item_set_generated.exit
  %64 = add nsw i32 %3, 1
  %65 = load i32, ptr @hf_cipsafety_crc_s1, align 4
  %66 = load i32, ptr @hf_cipsafety_crc_s1_status, align 4
  %67 = tail call ptr @proto_tree_add_checksum(ptr noundef %1, ptr noundef %2, i32 noundef %64, i32 noundef %65, i32 noundef %66, ptr noundef nonnull @ei_cipsafety_crc_s1, ptr noundef %0, i32 noundef 0, i32 noundef -2147483648, i32 noundef 0)
  %68 = add nsw i32 %3, 2
  %69 = load i32, ptr @hf_cipsafety_crc_s2, align 4
  %70 = load i32, ptr @hf_cipsafety_crc_s2_status, align 4
  %71 = tail call ptr @proto_tree_add_checksum(ptr noundef %1, ptr noundef %2, i32 noundef %68, i32 noundef %69, i32 noundef %70, ptr noundef nonnull @ei_cipsafety_crc_s2, ptr noundef %0, i32 noundef 0, i32 noundef -2147483648, i32 noundef 0)
  br label %72

72:                                               ; preds = %63, %compute_crc_s2_data.exit
  ret void
}